target datalayout = "e-m:e-p270:32:32-p271:32:32-p272:64:64-i64:64-i128:128-f80:128-n8:16:32:64-S128"
target triple = "x86_64-unknown-linux-gnu"

%"struct.std::_Rb_tree_header" = type { %"struct.std::_Rb_tree_node_base", i64 }
%"struct.std::_Rb_tree_node_base" = type { i32, ptr, ptr, ptr }
%"class.std::map.79" = type { %"class.std::_Rb_tree.80" }
%"class.std::_Rb_tree.80" = type { %"struct.std::_Rb_tree<grpc_core::XdsClient::ResourceWatcherInterface *, std::pair<grpc_core::XdsClient::ResourceWatcherInterface *const, grpc_core::RefCountedPtr<grpc_core::XdsClient::ResourceWatcherInterface>>, std::_Select1st<std::pair<grpc_core::XdsClient::ResourceWatcherInterface *const, grpc_core::RefCountedPtr<grpc_core::XdsClient::ResourceWatcherInterface>>>, std::less<grpc_core::XdsClient::ResourceWatcherInterface *>>::_Rb_tree_impl" }
%"struct.std::_Rb_tree<grpc_core::XdsClient::ResourceWatcherInterface *, std::pair<grpc_core::XdsClient::ResourceWatcherInterface *const, grpc_core::RefCountedPtr<grpc_core::XdsClient::ResourceWatcherInterface>>, std::_Select1st<std::pair<grpc_core::XdsClient::ResourceWatcherInterface *const, grpc_core::RefCountedPtr<grpc_core::XdsClient::ResourceWatcherInterface>>>, std::less<grpc_core::XdsClient::ResourceWatcherInterface *>>::_Rb_tree_impl" = type { %"struct.std::_Rb_tree_key_compare.84", %"struct.std::_Rb_tree_header" }
%"struct.std::_Rb_tree_key_compare.84" = type { %"struct.std::less.85" }
%"struct.std::less.85" = type { i8 }
%class.anon.377 = type { %"class.std::map.79" }

; Function Attrs: mustprogress nounwind uwtable
define linkonce_odr void @_ZNSt15__new_allocatorISt13_Rb_tree_nodeISt4pairIKPN9grpc_core9XdsClient24ResourceWatcherInterfaceENS2_13RefCountedPtrIS4_EEEEED2Ev(ptr noundef nonnull align 1 dereferenceable(1) %this) unnamed_addr #5 comdat align 2 {
entry:
  %this.addr = alloca ptr, align 8
  store ptr %this, ptr %this.addr, align 8
  ret void
}

; Function Attrs: mustprogress nounwind uwtable
define linkonce_odr void @_ZNSaISt13_Rb_tree_nodeISt4pairIKPN9grpc_core9XdsClient24ResourceWatcherInterfaceENS1_13RefCountedPtrIS3_EEEEED2Ev(ptr noundef nonnull align 1 dereferenceable(1) %this) unnamed_addr #5 comdat align 2 {
entry:
  %this.addr = alloca ptr, align 8
  store ptr %this, ptr %this.addr, align 8
  %this1 = load ptr, ptr %this.addr, align 8
  call void @_ZNSt15__new_allocatorISt13_Rb_tree_nodeISt4pairIKPN9grpc_core9XdsClient24ResourceWatcherInterfaceENS2_13RefCountedPtrIS4_EEEEED2Ev(ptr noundef nonnull align 1 dereferenceable(1) %this1) #3
  ret void
}

; Function Attrs: mustprogress nounwind uwtable
define linkonce_odr noundef ptr @_ZNKSt8_Rb_treeIPN9grpc_core9XdsClient24ResourceWatcherInterfaceESt4pairIKS3_NS0_13RefCountedPtrIS2_EEESt10_Select1stIS8_ESt4lessIS3_ESaIS8_EE9_M_mbeginEv(ptr noundef nonnull align 8 dereferenceable(48) %this) #5 comdat align 2 {
entry:
  %this.addr = alloca ptr, align 8
  store ptr %this, ptr %this.addr, align 8
  %this1 = load ptr, ptr %this.addr, align 8
  %_M_impl = getelementptr inbounds %"class.std::_Rb_tree.80", ptr %this1, i32 0, i32 0
  %add.ptr = getelementptr inbounds i8, ptr %_M_impl, i64 8
  %_M_header = getelementptr inbounds %"struct.std::_Rb_tree_header", ptr %add.ptr, i32 0, i32 0
  %_M_parent = getelementptr inbounds %"struct.std::_Rb_tree_node_base", ptr %_M_header, i32 0, i32 1
  %0 = load ptr, ptr %_M_parent, align 8
  ret ptr %0
}

; Function Attrs: mustprogress nounwind uwtable
define linkonce_odr void @_ZNSt8_Rb_treeIPN9grpc_core9XdsClient24ResourceWatcherInterfaceESt4pairIKS3_NS0_13RefCountedPtrIS2_EEESt10_Select1stIS8_ESt4lessIS3_ESaIS8_EE13_Rb_tree_implISC_Lb1EED2Ev(ptr noundef nonnull align 8 dereferenceable(48) %this) unnamed_addr #5 comdat align 2 {
entry:
  %this.addr = alloca ptr, align 8
  store ptr %this, ptr %this.addr, align 8
  %this1 = load ptr, ptr %this.addr, align 8
  call void @_ZNSaISt13_Rb_tree_nodeISt4pairIKPN9grpc_core9XdsClient24ResourceWatcherInterfaceENS1_13RefCountedPtrIS3_EEEEED2Ev(ptr noundef nonnull align 1 dereferenceable(1) %this1) #3
  ret void
}

; Function Attrs: mustprogress nounwind uwtable
define linkonce_odr noundef ptr @_ZNSt8_Rb_treeIPN9grpc_core9XdsClient24ResourceWatcherInterfaceESt4pairIKS3_NS0_13RefCountedPtrIS2_EEESt10_Select1stIS8_ESt4lessIS3_ESaIS8_EE8_M_beginEv(ptr noundef nonnull align 8 dereferenceable(48) %this) #5 comdat align 2 {
entry:
  %this.addr = alloca ptr, align 8
  store ptr %this, ptr %this.addr, align 8
  %this1 = load ptr, ptr %this.addr, align 8
  %call = call noundef ptr @_ZNKSt8_Rb_treeIPN9grpc_core9XdsClient24ResourceWatcherInterfaceESt4pairIKS3_NS0_13RefCountedPtrIS2_EEESt10_Select1stIS8_ESt4lessIS3_ESaIS8_EE9_M_mbeginEv(ptr noundef nonnull align 8 dereferenceable(48) %this1) #3
  ret ptr %call
}

; Function Attrs: mustprogress nounwind uwtable
define linkonce_odr void @_ZNSt8_Rb_treeIPN9grpc_core9XdsClient24ResourceWatcherInterfaceESt4pairIKS3_NS0_13RefCountedPtrIS2_EEESt10_Select1stIS8_ESt4lessIS3_ESaIS8_EED2Ev(ptr noundef nonnull align 8 dereferenceable(48) %this) unnamed_addr #5 comdat align 2 personality ptr @__gxx_personality_v0 {
entry:
  %this.addr = alloca ptr, align 8
  store ptr %this, ptr %this.addr, align 8
  %this1 = load ptr, ptr %this.addr, align 8
  %call = call noundef ptr @_ZNSt8_Rb_treeIPN9grpc_core9XdsClient24ResourceWatcherInterfaceESt4pairIKS3_NS0_13RefCountedPtrIS2_EEESt10_Select1stIS8_ESt4lessIS3_ESaIS8_EE8_M_beginEv(ptr noundef nonnull align 8 dereferenceable(48) %this1) #3
  invoke void @_ZNSt8_Rb_treeIPN9grpc_core9XdsClient24ResourceWatcherInterfaceESt4pairIKS3_NS0_13RefCountedPtrIS2_EEESt10_Select1stIS8_ESt4lessIS3_ESaIS8_EE8_M_eraseEPSt13_Rb_tree_nodeIS8_E(ptr noundef nonnull align 8 dereferenceable(48) %this1, ptr noundef %call)
          to label %invoke.cont unwind label %terminate.lpad

invoke.cont:                                      ; preds = %entry
  %_M_impl = getelementptr inbounds %"class.std::_Rb_tree.80", ptr %this1, i32 0, i32 0
  call void @_ZNSt8_Rb_treeIPN9grpc_core9XdsClient24ResourceWatcherInterfaceESt4pairIKS3_NS0_13RefCountedPtrIS2_EEESt10_Select1stIS8_ESt4lessIS3_ESaIS8_EE13_Rb_tree_implISC_Lb1EED2Ev(ptr noundef nonnull align 8 dereferenceable(48) %_M_impl) #3
  ret void

terminate.lpad:                                   ; preds = %entry
  %0 = landingpad { ptr, i32 }
          catch ptr null
  %1 = extractvalue { ptr, i32 } %0, 0
  call void @__clang_call_terminate(ptr %1) #18
  unreachable
}

; Function Attrs: mustprogress nounwind uwtable
define linkonce_odr void @_ZNSt3mapIPN9grpc_core9XdsClient24ResourceWatcherInterfaceENS0_13RefCountedPtrIS2_EESt4lessIS3_ESaISt4pairIKS3_S5_EEED2Ev(ptr noundef nonnull align 8 dereferenceable(48) %this) unnamed_addr #5 comdat align 2 {
entry:
  %this.addr = alloca ptr, align 8
  store ptr %this, ptr %this.addr, align 8
  %this1 = load ptr, ptr %this.addr, align 8
  %_M_t = getelementptr inbounds %"class.std::map.79", ptr %this1, i32 0, i32 0
  call void @_ZNSt8_Rb_treeIPN9grpc_core9XdsClient24ResourceWatcherInterfaceESt4pairIKS3_NS0_13RefCountedPtrIS2_EEESt10_Select1stIS8_ESt4lessIS3_ESaIS8_EED2Ev(ptr noundef nonnull align 8 dereferenceable(48) %_M_t) #3
  ret void
}

; Function Attrs: mustprogress nounwind uwtable
define internal void @"_ZZN9grpc_core9XdsClient36NotifyWatchersOnResourceDoesNotExistERKSt3mapIPNS0_24ResourceWatcherInterfaceENS_13RefCountedPtrIS2_EESt4lessIS3_ESaISt4pairIKS3_S5_EEEEN3$_0D2Ev"(ptr noundef nonnull align 8 dereferenceable(48) %this) unnamed_addr #5 align 2 {
entry:
  %this.addr = alloca ptr, align 8
  store ptr %this, ptr %this.addr, align 8
  %this1 = load ptr, ptr %this.addr, align 8
  %0 = getelementptr inbounds %class.anon.377, ptr %this1, i32 0, i32 0
  call void @_ZNSt3mapIPN9grpc_core9XdsClient24ResourceWatcherInterfaceENS0_13RefCountedPtrIS2_EESt4lessIS3_ESaISt4pairIKS3_S5_EEED2Ev(ptr noundef nonnull align 8 dereferenceable(48) %0) #3
  ret void
}