; Function Attrs: mustprogress nounwind uwtable
define internal fastcc void @"_ZZN9grpc_core9XdsClient36NotifyWatchersOnResourceDoesNotExistERKSt3mapIPNS0_24ResourceWatcherInterfaceENS_13RefCountedPtrIS2_EESt4lessIS3_ESaISt4pairIKS3_S5_EEEEN3$_0D2Ev"(ptr noundef nonnull align 8 dereferenceable(48) %this) unnamed_addr #4 align 2 personality ptr @__gxx_personality_v0 {
entry:
  %_M_parent.i.i.i.i = getelementptr inbounds i8, ptr %this, i64 16
  %0 = load ptr, ptr %_M_parent.i.i.i.i, align 8
  invoke void @_ZNSt8_Rb_treeIPN9grpc_core9XdsClient24ResourceWatcherInterfaceESt4pairIKS3_NS0_13RefCountedPtrIS2_EEESt10_Select1stIS8_ESt4lessIS3_ESaIS8_EE8_M_eraseEPSt13_Rb_tree_nodeIS8_E(ptr noundef nonnull align 8 dereferenceable(48) %this, ptr noundef %0)
          to label %_ZNSt3mapIPN9grpc_core9XdsClient24ResourceWatcherInterfaceENS0_13RefCountedPtrIS2_EESt4lessIS3_ESaISt4pairIKS3_S5_EEED2Ev.exit unwind label %terminate.lpad.i.i

terminate.lpad.i.i:                               ; preds = %entry
  %1 = landingpad { ptr, i32 }
          catch ptr null
  %2 = extractvalue { ptr, i32 } %1, 0
  tail call void @__clang_call_terminate(ptr %2) #27
  unreachable

_ZNSt3mapIPN9grpc_core9XdsClient24ResourceWatcherInterfaceENS0_13RefCountedPtrIS2_EESt4lessIS3_ESaISt4pairIKS3_S5_EEED2Ev.exit: ; preds = %entry
  ret void
}